******************************************************************************
             TMS320C2000 Linker PC v6.1.0                      
******************************************************************************
>> Linked Wed Feb 27 15:30:10 2013

OUTPUT FILE NAME:   <D:/Firmware/sam3s-demo-source/trunk/ sam3s-demo-source --username kaiser.ren@gmail.com/DSP2802x/v126/DSP2802x_examples/i2c_eeprom/Example_2802xI2C_eeprom/../../../DSP2802x_examples/i2c_eeprom/Debug/Example_2802xI2C_eeprom.out>
ENTRY POINT SYMBOL: "code_start"  address: 00000000


MEMORY CONFIGURATION

         name            origin    length      used     unused   attr    fill
----------------------  --------  ---------  --------  --------  ----  --------
PAGE 0:
  BEGIN                 00000000   00000002  00000002  00000000  RWIX
  RAMM0                 00000050   000003b0  000000b7  000002f9  RWIX
  PRAML0                00008000   00000fff  00000060  00000f9f  RWIX
  IQTABLES              003fe000   00000b50  00000b50  00000000  RWIX
  IQTABLES2             003feb50   0000008c  00000000  0000008c  RWIX
  IQTABLES3             003febdc   000000aa  00000000  000000aa  RWIX
  BOOTROM               003ff27c   00000d44  00000000  00000d44  RWIX
  RESET                 003fffc0   00000002  00000000  00000002  RWIX

PAGE 1:
  BOOT_RSVD             00000002   0000004e  00000000  0000004e  RWIX
  RAMM1                 00000400   00000400  00000300  00000100  RWIX
  DEV_EMU               00000880   00000105  00000004  00000101  RWIX
  SYS_PWR_CTL           00000985   00000003  00000003  00000000  RWIX
  FLASH_REGS            00000a80   00000060  00000008  00000058  RWIX
  CSM                   00000ae0   00000010  00000010  00000000  RWIX
  ADC_RESULT            00000b00   00000020  00000020  00000000  RWIX
  CPU_TIMER0            00000c00   00000008  00000008  00000000  RWIX
  CPU_TIMER1            00000c08   00000008  00000008  00000000  RWIX
  CPU_TIMER2            00000c10   00000008  00000008  00000000  RWIX
  PIE_CTRL              00000ce0   00000020  0000001a  00000006  RWIX
  PIE_VECT              00000d00   00000100  00000100  00000000  RWIX
  COMP1                 00006400   00000020  00000011  0000000f  RWIX
  COMP2                 00006420   00000020  00000011  0000000f  RWIX
  EPWM1                 00006800   00000040  0000003a  00000006  RWIX
  EPWM2                 00006840   00000040  0000003a  00000006  RWIX
  EPWM3                 00006880   00000040  0000003a  00000006  RWIX
  EPWM4                 000068c0   00000040  0000003a  00000006  RWIX
  ECAP1                 00006a00   00000020  00000020  00000000  RWIX
  GPIOCTRL              00006f80   00000040  00000040  00000000  RWIX
  GPIODAT               00006fc0   00000020  00000020  00000000  RWIX
  GPIOINT               00006fe0   00000020  0000000a  00000016  RWIX
  SYSTEM                00007010   00000020  0000001f  00000001  RWIX
  SPIA                  00007040   00000010  00000010  00000000  RWIX
  SCIA                  00007050   00000010  00000010  00000000  RWIX
  NMIINTRUPT            00007060   00000010  00000010  00000000  RWIX
  XINTRUPT              00007070   00000010  00000010  00000000  RWIX
  ADC                   00007100   00000080  00000050  00000030  RWIX
  I2CA                  00007900   00000040  00000022  0000001e  RWIX
  DRAML0                00008900   00000700  00000460  000002a0  RWIX
  PARTID                003d7fff   00000001  00000001  00000000  RWIX
  CSM_PWL               003f7ff8   00000008  00000008  00000000  RWIX


SECTION ALLOCATION MAP

 output                                  attributes/
section   page    origin      length       input sections
--------  ----  ----------  ----------   ----------------
codestart 
*          0    00000000    00000002     
                  00000000    00000002     DSP2802x_CodeStartBranch.obj (codestart)

.text      0    00000000    0000158d     FAILED TO ALLOCATE
.pinit     0    00000050    00000000     UNINITIALIZED

.econst    1    00000000    00000327     FAILED TO ALLOCATE
ramfuncs   0    00000050    0000001f     
                  00000050    0000001b     DSP2802x_SysCtrl.obj (ramfuncs)
                  0000006b    00000004     DSP2802x_usDelay.obj (ramfuncs)

.cinit     0    0000006f    0000001a     
                  0000006f    0000000a     rts2800_ml.lib : _lock.obj (.cinit)
                  00000079    0000000a                    : exit.obj (.cinit)
                  00000083    00000004     ad5933.obj (.cinit)
                  00000087    00000002     --HOLE-- [fill = 0]

csm_rsvd   0    00000089    00000076     
                  00000089    00000076     DSP2802x_CSMPasswords.obj (csm_rsvd)

csmpasswds 
*          0    000000ff    00000008     
                  000000ff    00000008     DSP2802x_CSMPasswords.obj (csmpasswds)

IQmath     0    00008000    00000060     
                  00008000    00000060     IQmath.lib : IQ24mag.obj (IQmath)

IQmathTables 
*          0    003fe000    00000b50     NOLOAD SECTION
                  003fe000    00000b50     IQmath.lib : IQmathTables.obj (IQmathTables)

.reset     0    003fffc0    00000002     DSECT
                  003fffc0    00000002     rts2800_ml.lib : boot.obj (.reset)

.stack     1    00000400    00000300     UNINITIALIZED
                  00000400    00000300     --HOLE--

DevEmuRegsFile 
*          1    00000880    00000004     UNINITIALIZED
                  00000880    00000004     DSP2802x_GlobalVariableDefs.obj (DevEmuRegsFile)

SysPwrCtrlRegsFile 
*          1    00000985    00000003     UNINITIALIZED
                  00000985    00000003     DSP2802x_GlobalVariableDefs.obj (SysPwrCtrlRegsFile)

FlashRegsFile 
*          1    00000a80    00000008     UNINITIALIZED
                  00000a80    00000008     DSP2802x_GlobalVariableDefs.obj (FlashRegsFile)

CsmRegsFile 
*          1    00000ae0    00000010     UNINITIALIZED
                  00000ae0    00000010     DSP2802x_GlobalVariableDefs.obj (CsmRegsFile)

AdcResultFile 
*          1    00000b00    00000020     UNINITIALIZED
                  00000b00    00000020     DSP2802x_GlobalVariableDefs.obj (AdcResultFile)

CpuTimer0RegsFile 
*          1    00000c00    00000008     UNINITIALIZED
                  00000c00    00000008     DSP2802x_GlobalVariableDefs.obj (CpuTimer0RegsFile)

CpuTimer1RegsFile 
*          1    00000c08    00000008     UNINITIALIZED
                  00000c08    00000008     DSP2802x_GlobalVariableDefs.obj (CpuTimer1RegsFile)

CpuTimer2RegsFile 
*          1    00000c10    00000008     UNINITIALIZED
                  00000c10    00000008     DSP2802x_GlobalVariableDefs.obj (CpuTimer2RegsFile)

PieCtrlRegsFile 
*          1    00000ce0    0000001a     UNINITIALIZED
                  00000ce0    0000001a     DSP2802x_GlobalVariableDefs.obj (PieCtrlRegsFile)

PieVectTableFile 
*          1    00000d00    00000100     UNINITIALIZED
                  00000d00    00000100     DSP2802x_GlobalVariableDefs.obj (PieVectTableFile)

EmuKeyVar 
*          1    00000d00    00000001     UNINITIALIZED
                  00000d00    00000001     DSP2802x_GlobalVariableDefs.obj (EmuKeyVar)

EmuBModeVar 
*          1    00000d01    00000001     UNINITIALIZED
                  00000d01    00000001     DSP2802x_GlobalVariableDefs.obj (EmuBModeVar)

FlashCallbackVar 
*          1    00000d02    00000002     UNINITIALIZED
                  00000d02    00000002     DSP2802x_GlobalVariableDefs.obj (FlashCallbackVar)

FlashScalingVar 
*          1    00000d04    00000002     UNINITIALIZED
                  00000d04    00000002     DSP2802x_GlobalVariableDefs.obj (FlashScalingVar)

Comp1RegsFile 
*          1    00006400    00000011     UNINITIALIZED
                  00006400    00000011     DSP2802x_GlobalVariableDefs.obj (Comp1RegsFile)

Comp2RegsFile 
*          1    00006420    00000011     UNINITIALIZED
                  00006420    00000011     DSP2802x_GlobalVariableDefs.obj (Comp2RegsFile)

EPwm1RegsFile 
*          1    00006800    0000003a     UNINITIALIZED
                  00006800    0000003a     DSP2802x_GlobalVariableDefs.obj (EPwm1RegsFile)

EPwm2RegsFile 
*          1    00006840    0000003a     UNINITIALIZED
                  00006840    0000003a     DSP2802x_GlobalVariableDefs.obj (EPwm2RegsFile)

EPwm3RegsFile 
*          1    00006880    0000003a     UNINITIALIZED
                  00006880    0000003a     DSP2802x_GlobalVariableDefs.obj (EPwm3RegsFile)

EPwm4RegsFile 
*          1    000068c0    0000003a     UNINITIALIZED
                  000068c0    0000003a     DSP2802x_GlobalVariableDefs.obj (EPwm4RegsFile)

ECap1RegsFile 
*          1    00006a00    00000020     UNINITIALIZED
                  00006a00    00000020     DSP2802x_GlobalVariableDefs.obj (ECap1RegsFile)

GpioCtrlRegsFile 
*          1    00006f80    00000040     UNINITIALIZED
                  00006f80    00000040     DSP2802x_GlobalVariableDefs.obj (GpioCtrlRegsFile)

GpioDataRegsFile 
*          1    00006fc0    00000020     UNINITIALIZED
                  00006fc0    00000020     DSP2802x_GlobalVariableDefs.obj (GpioDataRegsFile)

GpioIntRegsFile 
*          1    00006fe0    0000000a     UNINITIALIZED
                  00006fe0    0000000a     DSP2802x_GlobalVariableDefs.obj (GpioIntRegsFile)

SysCtrlRegsFile 
*          1    00007010    0000001f     UNINITIALIZED
                  00007010    0000001f     DSP2802x_GlobalVariableDefs.obj (SysCtrlRegsFile)

SpiaRegsFile 
*          1    00007040    00000010     UNINITIALIZED
                  00007040    00000010     DSP2802x_GlobalVariableDefs.obj (SpiaRegsFile)

SciaRegsFile 
*          1    00007050    00000010     UNINITIALIZED
                  00007050    00000010     DSP2802x_GlobalVariableDefs.obj (SciaRegsFile)

NmiIntruptRegsFile 
*          1    00007060    00000010     UNINITIALIZED
                  00007060    00000010     DSP2802x_GlobalVariableDefs.obj (NmiIntruptRegsFile)

XIntruptRegsFile 
*          1    00007070    00000010     UNINITIALIZED
                  00007070    00000010     DSP2802x_GlobalVariableDefs.obj (XIntruptRegsFile)

AdcRegsFile 
*          1    00007100    00000050     UNINITIALIZED
                  00007100    00000050     DSP2802x_GlobalVariableDefs.obj (AdcRegsFile)

I2caRegsFile 
*          1    00007900    00000022     UNINITIALIZED
                  00007900    00000022     DSP2802x_GlobalVariableDefs.obj (I2caRegsFile)

.ebss      1    00008900    00000460     UNINITIALIZED
                  00008900    0000043e     ad5933.obj (.ebss)
                  00008d3e    00000002     --HOLE--
                  00008d40    00000018     DSP2802x_CpuTimers.obj (.ebss)
                  00008d58    00000004     rts2800_ml.lib : _lock.obj (.ebss)
                  00008d5c    00000004                    : exit.obj (.ebss)

PartIdRegsFile 
*          1    003d7fff    00000001     UNINITIALIZED
                  003d7fff    00000001     DSP2802x_GlobalVariableDefs.obj (PartIdRegsFile)

CsmPwlFile 
*          1    003f7ff8    00000008     UNINITIALIZED
                  003f7ff8    00000008     DSP2802x_GlobalVariableDefs.obj (CsmPwlFile)


GLOBAL SYMBOLS: SORTED ALPHABETICALLY BY Name 

address    name
--------   ----
00000000   .text
000014cc   C$$EXIT
00000e85   FD$$ADD
000012b7   FD$$CMP
00000f21   FD$$DIV
00000fac   FD$$MPY
0000156b   FD$$NEG
0000154a   FD$$SUB
000013c8   FD$$TOI
0000140a   FD$$TOL
00001034   FS$$ADD
0000118d   FS$$MPY
0000102f   FS$$SUB
00001447   FS$$TOFD
00001381   FS$$TOI
0000130b   FS$$TOL
000013a6   I$$DIV
000013b7   I$$MOD
000012e1   L$$DIV
000012f0   L$$MOD
00001463   L$$TOFD
00001499   L$$TOFS
00001429   LL$$CMP
00000aaa   LL$$DIV
00000ae6   LL$$MOD
00001511   LL$$MPY
000012fe   UL$$DIV
00001305   UL$$MOD
0000143b   ULL$$CMP
00000b20   ULL$$DIV
00000b4f   ULL$$MOD
00000d16   _ADCINT1_ISR
00000d1b   _ADCINT2_ISR
00000d84   _ADCINT3_ISR
00000d89   _ADCINT4_ISR
00000d8e   _ADCINT5_ISR
00000d93   _ADCINT6_ISR
00000d98   _ADCINT7_ISR
00000d9d   _ADCINT8_ISR
00000d2a   _ADCINT9_ISR
00007100   _AdcRegs
00000b00   _AdcResult
00006400   _Comp1Regs
00006420   _Comp2Regs
000010e8   _ConfigCpuTimer
00008d50   _CpuTimer0
00000c00   _CpuTimer0Regs
00008d40   _CpuTimer1
00000c08   _CpuTimer1Regs
00008d48   _CpuTimer2
00000c10   _CpuTimer2Regs
003f7ff8   _CsmPwl
00000ae0   _CsmRegs
0000091e   _CsmUnlock
00000cc1   _DATALOG_ISR
0000006b   _DSP28x_usDelay
00000880   _DevEmuRegs
00000894   _DisableDog
00000d61   _ECAP1_INT_ISR
00006a00   _ECap1Regs
00000da7   _EMPTY_ISR
00000ccb   _EMUINT_ISR
00000d4d   _EPWM1_INT_ISR
00000d39   _EPWM1_TZINT_ISR
00000d52   _EPWM2_INT_ISR
00000d3e   _EPWM2_TZINT_ISR
00000d57   _EPWM3_INT_ISR
00000d43   _EPWM3_TZINT_ISR
00000d5c   _EPWM4_INT_ISR
00000d48   _EPWM4_TZINT_ISR
00006800   _EPwm1Regs
00006840   _EPwm2Regs
00006880   _EPwm3Regs
000068c0   _EPwm4Regs
00000d01   _EmuBMode
00000d00   _EmuKey
00001353   _EnableInterrupts
00000985   _ExtOscSel
00000a80   _FlashRegs
00000d04   _Flash_CPUScaleFactor
00000d02   _Flash_CallbackPtr
00000c29   _FloatToString
00006f80   _GpioCtrlRegs
00006fc0   _GpioDataRegs
00006fe0   _GpioIntRegs
00000d70   _I2CINT1A_ISR
00000d75   _I2CINT2A_ISR
0000111c   _I2C_Init
00001168   _I2C_Read
0000112d   _I2C_Write
00007900   _I2caRegs
00000cd5   _ILLEGAL_ISR
00000cb7   _INT13_ISR
00000cbc   _INT14_ISR
003fead8   _IQ10mpyRndSatTable
003feacc   _IQ11mpyRndSatTable
003feac0   _IQ12mpyRndSatTable
003feab4   _IQ13mpyRndSatTable
003feaa8   _IQ14mpyRndSatTable
003fea9c   _IQ15mpyRndSatTable
003fea90   _IQ16mpyRndSatTable
003fea84   _IQ17mpyRndSatTable
003fea78   _IQ18mpyRndSatTable
003fea6c   _IQ19mpyRndSatTable
003feb44   _IQ1mpyRndSatTable
003fea60   _IQ20mpyRndSatTable
003fea54   _IQ21mpyRndSatTable
003fea48   _IQ22mpyRndSatTable
003fea3c   _IQ23mpyRndSatTable
003fea30   _IQ24mpyRndSatTable
003fea24   _IQ25mpyRndSatTable
003fea18   _IQ26mpyRndSatTable
003fea0c   _IQ27mpyRndSatTable
003fea00   _IQ28mpyRndSatTable
003fe9f4   _IQ29mpyRndSatTable
003feb38   _IQ2mpyRndSatTable
003fe9e8   _IQ30mpyRndSatTable
003feb2c   _IQ3mpyRndSatTable
003feb20   _IQ4mpyRndSatTable
003feb14   _IQ5mpyRndSatTable
003feb08   _IQ6mpyRndSatTable
003feafc   _IQ7mpyRndSatTable
003feaf0   _IQ8mpyRndSatTable
003feae4   _IQ9mpyRndSatTable
003fe824   _IQatan2HalfPITable
003fe862   _IQatan2Table
003fe9e8   _IQatan2TableEnd
003fe100   _IQcosTable
003fe502   _IQcosTableEnd
003fe502   _IQdivRoundSatTable
003fe510   _IQdivTable
003fe712   _IQdivTableEnd
003fe712   _IQisqrtRoundSatTable
003fe722   _IQisqrtTable
003fe824   _IQisqrtTableEnd
003fe9e8   _IQmpyRndSatTable
003feb50   _IQmpyRndSatTableEnd
003fe000   _IQsinTable
003fe400   _IQsinTableEnd
003fe712   _IQsqrtRoundSatTable
003fe722   _IQsqrtTable
003fe824   _IQsqrtTableEnd
000010a7   _InitCpuTimers
00000050   _InitFlash
00001525   _InitGpio
000014e5   _InitI2C
000014e6   _InitI2CGpio
000008ec   _InitPeripheralClocks
00001334   _InitPieCtrl
0000135c   _InitPieVectTable
0000089c   _InitPll
0000147f   _InitSci
00001480   _InitSciGpio
00001483   _InitSciaGpio
00000870   _InitSysCtrl
0000094f   _IntOsc1Sel
0000095f   _IntOsc2Sel
000014fc   _MemCopy
00000cd0   _NMI_ISR
00007060   _NmiIntruptRegs
00000dac   _PIE_RESERVED
003d7fff   _PartIdRegs
00000ce0   _PieCtrlRegs
00000d00   _PieVectTable
00000102   _PieVectTableInit
00000cc6   _RTOSINT_ISR
00000d7a   _SCIRXINTA_ISR
00000d7f   _SCITXINTA_ISR
00000d66   _SPIRXINTA_ISR
00000d6b   _SPITXINTA_ISR
00007050   _SciaRegs
0000088a   _ServiceDog
00007040   _SpiaRegs
00007010   _SysCtrlRegs
00000985   _SysPwrCtrlRegs
00000d2f   _TINT0_ISR
00000d07   _USER10_ISR
00000d0c   _USER11_ISR
00000d11   _USER12_ISR
00000cda   _USER1_ISR
00000cdf   _USER2_ISR
00000ce4   _USER3_ISR
00000ce9   _USER4_ISR
00000cee   _USER5_ISR
00000cf3   _USER6_ISR
00000cf8   _USER7_ISR
00000cfd   _USER8_ISR
00000d02   _USER9_ISR
00000d34   _WAKEINT_ISR
00000d20   _XINT1_ISR
00000d25   _XINT2_ISR
00000da2   _XINT3_ISR
00007070   _XIntruptRegs
00000971   _XtalOscSel
00008000   __IQ24mag
00000700   __STACK_END
00000300   __STACK_SIZE
00000001   __TI_args_main
ffffffff   ___binit__
ffffffff   ___c_args__
0000006f   ___cinit__
0000158d   ___etext__
000013e9   ___memcpy_ff
ffffffff   ___pinit__
00000000   ___text__
000014b3   __args_main
00008d5c   __cleanup_ptr
00000000   __ctypes_
00008d5e   __dtors_ptr
00008d5a   __lock
0000156a   __nop
0000077e   __printfi
00001566   __register_lock
00001562   __register_unlock
00000400   __stack
00008d58   __unlock
000014cc   _abort
0000099b   _ad5933_init
00000a05   _ad5933_mode
000009f2   _ad5933_print
00000a14   _ad5933_sweep
00008900   _ad5933_temp
00000a81   _ad5993_GetTemperature
00000a0d   _ad5993_status
0000122b   _atoi
00000e79   _button_init
000011e7   _c_int00
000014ce   _exit
00000e2b   _led_init
00000e5d   _led_off
00000e41   _led_on
0000128b   _ltoa
00008940   _magnitude
00000db6   _main
00001538   _memccpy
00001585   _memset
0000158c   _modular_operate
00000db1   _rsvd_ISR
00000c03   _scia_Byte2Hex
00000c24   _scia_PrintLF
00000bb9   _scia_echoback_init
00000bb1   _scia_fifo_init
00000bd9   _scia_msg
00000bee   _scia_read
00000bcd   _scia_xmit
0000125c   _sprintf
00001574   _strcpy
00001558   _strlen
ffffffff   binit
0000006f   cinit
00000000   code_start
0000158d   etext
ffffffff   pinit


GLOBAL SYMBOLS: SORTED BY Symbol Address 

address    name
--------   ----
00000000   .text
00000000   ___text__
00000000   __ctypes_
00000000   code_start
00000001   __TI_args_main
00000050   _InitFlash
0000006b   _DSP28x_usDelay
0000006f   ___cinit__
0000006f   cinit
00000102   _PieVectTableInit
00000300   __STACK_SIZE
00000400   __stack
00000700   __STACK_END
0000077e   __printfi
00000870   _InitSysCtrl
00000880   _DevEmuRegs
0000088a   _ServiceDog
00000894   _DisableDog
0000089c   _InitPll
000008ec   _InitPeripheralClocks
0000091e   _CsmUnlock
0000094f   _IntOsc1Sel
0000095f   _IntOsc2Sel
00000971   _XtalOscSel
00000985   _ExtOscSel
00000985   _SysPwrCtrlRegs
0000099b   _ad5933_init
000009f2   _ad5933_print
00000a05   _ad5933_mode
00000a0d   _ad5993_status
00000a14   _ad5933_sweep
00000a80   _FlashRegs
00000a81   _ad5993_GetTemperature
00000aaa   LL$$DIV
00000ae0   _CsmRegs
00000ae6   LL$$MOD
00000b00   _AdcResult
00000b20   ULL$$DIV
00000b4f   ULL$$MOD
00000bb1   _scia_fifo_init
00000bb9   _scia_echoback_init
00000bcd   _scia_xmit
00000bd9   _scia_msg
00000bee   _scia_read
00000c00   _CpuTimer0Regs
00000c03   _scia_Byte2Hex
00000c08   _CpuTimer1Regs
00000c10   _CpuTimer2Regs
00000c24   _scia_PrintLF
00000c29   _FloatToString
00000cb7   _INT13_ISR
00000cbc   _INT14_ISR
00000cc1   _DATALOG_ISR
00000cc6   _RTOSINT_ISR
00000ccb   _EMUINT_ISR
00000cd0   _NMI_ISR
00000cd5   _ILLEGAL_ISR
00000cda   _USER1_ISR
00000cdf   _USER2_ISR
00000ce0   _PieCtrlRegs
00000ce4   _USER3_ISR
00000ce9   _USER4_ISR
00000cee   _USER5_ISR
00000cf3   _USER6_ISR
00000cf8   _USER7_ISR
00000cfd   _USER8_ISR
00000d00   _EmuKey
00000d00   _PieVectTable
00000d01   _EmuBMode
00000d02   _Flash_CallbackPtr
00000d02   _USER9_ISR
00000d04   _Flash_CPUScaleFactor
00000d07   _USER10_ISR
00000d0c   _USER11_ISR
00000d11   _USER12_ISR
00000d16   _ADCINT1_ISR
00000d1b   _ADCINT2_ISR
00000d20   _XINT1_ISR
00000d25   _XINT2_ISR
00000d2a   _ADCINT9_ISR
00000d2f   _TINT0_ISR
00000d34   _WAKEINT_ISR
00000d39   _EPWM1_TZINT_ISR
00000d3e   _EPWM2_TZINT_ISR
00000d43   _EPWM3_TZINT_ISR
00000d48   _EPWM4_TZINT_ISR
00000d4d   _EPWM1_INT_ISR
00000d52   _EPWM2_INT_ISR
00000d57   _EPWM3_INT_ISR
00000d5c   _EPWM4_INT_ISR
00000d61   _ECAP1_INT_ISR
00000d66   _SPIRXINTA_ISR
00000d6b   _SPITXINTA_ISR
00000d70   _I2CINT1A_ISR
00000d75   _I2CINT2A_ISR
00000d7a   _SCIRXINTA_ISR
00000d7f   _SCITXINTA_ISR
00000d84   _ADCINT3_ISR
00000d89   _ADCINT4_ISR
00000d8e   _ADCINT5_ISR
00000d93   _ADCINT6_ISR
00000d98   _ADCINT7_ISR
00000d9d   _ADCINT8_ISR
00000da2   _XINT3_ISR
00000da7   _EMPTY_ISR
00000dac   _PIE_RESERVED
00000db1   _rsvd_ISR
00000db6   _main
00000e2b   _led_init
00000e41   _led_on
00000e5d   _led_off
00000e79   _button_init
00000e85   FD$$ADD
00000f21   FD$$DIV
00000fac   FD$$MPY
0000102f   FS$$SUB
00001034   FS$$ADD
000010a7   _InitCpuTimers
000010e8   _ConfigCpuTimer
0000111c   _I2C_Init
0000112d   _I2C_Write
00001168   _I2C_Read
0000118d   FS$$MPY
000011e7   _c_int00
0000122b   _atoi
0000125c   _sprintf
0000128b   _ltoa
000012b7   FD$$CMP
000012e1   L$$DIV
000012f0   L$$MOD
000012fe   UL$$DIV
00001305   UL$$MOD
0000130b   FS$$TOL
00001334   _InitPieCtrl
00001353   _EnableInterrupts
0000135c   _InitPieVectTable
00001381   FS$$TOI
000013a6   I$$DIV
000013b7   I$$MOD
000013c8   FD$$TOI
000013e9   ___memcpy_ff
0000140a   FD$$TOL
00001429   LL$$CMP
0000143b   ULL$$CMP
00001447   FS$$TOFD
00001463   L$$TOFD
0000147f   _InitSci
00001480   _InitSciGpio
00001483   _InitSciaGpio
00001499   L$$TOFS
000014b3   __args_main
000014cc   C$$EXIT
000014cc   _abort
000014ce   _exit
000014e5   _InitI2C
000014e6   _InitI2CGpio
000014fc   _MemCopy
00001511   LL$$MPY
00001525   _InitGpio
00001538   _memccpy
0000154a   FD$$SUB
00001558   _strlen
00001562   __register_unlock
00001566   __register_lock
0000156a   __nop
0000156b   FD$$NEG
00001574   _strcpy
00001585   _memset
0000158c   _modular_operate
0000158d   ___etext__
0000158d   etext
00006400   _Comp1Regs
00006420   _Comp2Regs
00006800   _EPwm1Regs
00006840   _EPwm2Regs
00006880   _EPwm3Regs
000068c0   _EPwm4Regs
00006a00   _ECap1Regs
00006f80   _GpioCtrlRegs
00006fc0   _GpioDataRegs
00006fe0   _GpioIntRegs
00007010   _SysCtrlRegs
00007040   _SpiaRegs
00007050   _SciaRegs
00007060   _NmiIntruptRegs
00007070   _XIntruptRegs
00007100   _AdcRegs
00007900   _I2caRegs
00008000   __IQ24mag
00008900   _ad5933_temp
00008940   _magnitude
00008d40   _CpuTimer1
00008d48   _CpuTimer2
00008d50   _CpuTimer0
00008d58   __unlock
00008d5a   __lock
00008d5c   __cleanup_ptr
00008d5e   __dtors_ptr
003d7fff   _PartIdRegs
003f7ff8   _CsmPwl
003fe000   _IQsinTable
003fe100   _IQcosTable
003fe400   _IQsinTableEnd
003fe502   _IQcosTableEnd
003fe502   _IQdivRoundSatTable
003fe510   _IQdivTable
003fe712   _IQdivTableEnd
003fe712   _IQisqrtRoundSatTable
003fe712   _IQsqrtRoundSatTable
003fe722   _IQisqrtTable
003fe722   _IQsqrtTable
003fe824   _IQatan2HalfPITable
003fe824   _IQisqrtTableEnd
003fe824   _IQsqrtTableEnd
003fe862   _IQatan2Table
003fe9e8   _IQ30mpyRndSatTable
003fe9e8   _IQatan2TableEnd
003fe9e8   _IQmpyRndSatTable
003fe9f4   _IQ29mpyRndSatTable
003fea00   _IQ28mpyRndSatTable
003fea0c   _IQ27mpyRndSatTable
003fea18   _IQ26mpyRndSatTable
003fea24   _IQ25mpyRndSatTable
003fea30   _IQ24mpyRndSatTable
003fea3c   _IQ23mpyRndSatTable
003fea48   _IQ22mpyRndSatTable
003fea54   _IQ21mpyRndSatTable
003fea60   _IQ20mpyRndSatTable
003fea6c   _IQ19mpyRndSatTable
003fea78   _IQ18mpyRndSatTable
003fea84   _IQ17mpyRndSatTable
003fea90   _IQ16mpyRndSatTable
003fea9c   _IQ15mpyRndSatTable
003feaa8   _IQ14mpyRndSatTable
003feab4   _IQ13mpyRndSatTable
003feac0   _IQ12mpyRndSatTable
003feacc   _IQ11mpyRndSatTable
003fead8   _IQ10mpyRndSatTable
003feae4   _IQ9mpyRndSatTable
003feaf0   _IQ8mpyRndSatTable
003feafc   _IQ7mpyRndSatTable
003feb08   _IQ6mpyRndSatTable
003feb14   _IQ5mpyRndSatTable
003feb20   _IQ4mpyRndSatTable
003feb2c   _IQ3mpyRndSatTable
003feb38   _IQ2mpyRndSatTable
003feb44   _IQ1mpyRndSatTable
003feb50   _IQmpyRndSatTableEnd
ffffffff   ___binit__
ffffffff   ___c_args__
ffffffff   ___pinit__
ffffffff   binit
ffffffff   pinit

[253 symbols]
